	.file	"lab1.cpp"
	.text
.Ltext0:
	.section	.rodata
	.type	_ZStL19piecewise_construct, @object
	.size	_ZStL19piecewise_construct, 1
_ZStL19piecewise_construct:
	.zero	1
	.section	.text._ZStanSt13_Ios_FmtflagsS_,"axG",@progbits,_ZStanSt13_Ios_FmtflagsS_,comdat
	.weak	_ZStanSt13_Ios_FmtflagsS_
	.type	_ZStanSt13_Ios_FmtflagsS_, @function
_ZStanSt13_Ios_FmtflagsS_:
.LFB1160:
	.file 1 "/usr/include/c++/10/bits/ios_base.h"
	.loc 1 84 3
	.cfi_startproc
	pushq	%rbp
	.cfi_def_cfa_offset 16
	.cfi_offset 6, -16
	movq	%rsp, %rbp
	.cfi_def_cfa_register 6
	movl	%edi, -4(%rbp)
	movl	%esi, -8(%rbp)
	.loc 1 84 71
	movl	-4(%rbp), %eax
	andl	-8(%rbp), %eax
	.loc 1 84 74
	popq	%rbp
	.cfi_def_cfa 7, 8
	ret
	.cfi_endproc
.LFE1160:
	.size	_ZStanSt13_Ios_FmtflagsS_, .-_ZStanSt13_Ios_FmtflagsS_
	.section	.text._ZStorSt13_Ios_FmtflagsS_,"axG",@progbits,_ZStorSt13_Ios_FmtflagsS_,comdat
	.weak	_ZStorSt13_Ios_FmtflagsS_
	.type	_ZStorSt13_Ios_FmtflagsS_, @function
_ZStorSt13_Ios_FmtflagsS_:
.LFB1161:
	.loc 1 88 3
	.cfi_startproc
	pushq	%rbp
	.cfi_def_cfa_offset 16
	.cfi_offset 6, -16
	movq	%rsp, %rbp
	.cfi_def_cfa_register 6
	movl	%edi, -4(%rbp)
	movl	%esi, -8(%rbp)
	.loc 1 88 71
	movl	-4(%rbp), %eax
	orl	-8(%rbp), %eax
	.loc 1 88 74
	popq	%rbp
	.cfi_def_cfa 7, 8
	ret
	.cfi_endproc
.LFE1161:
	.size	_ZStorSt13_Ios_FmtflagsS_, .-_ZStorSt13_Ios_FmtflagsS_
	.section	.text._ZStcoSt13_Ios_Fmtflags,"axG",@progbits,_ZStcoSt13_Ios_Fmtflags,comdat
	.weak	_ZStcoSt13_Ios_Fmtflags
	.type	_ZStcoSt13_Ios_Fmtflags, @function
_ZStcoSt13_Ios_Fmtflags:
.LFB1163:
	.loc 1 96 3
	.cfi_startproc
	pushq	%rbp
	.cfi_def_cfa_offset 16
	.cfi_offset 6, -16
	movq	%rsp, %rbp
	.cfi_def_cfa_register 6
	movl	%edi, -4(%rbp)
	.loc 1 96 48
	movl	-4(%rbp), %eax
	notl	%eax
	.loc 1 96 51
	popq	%rbp
	.cfi_def_cfa 7, 8
	ret
	.cfi_endproc
.LFE1163:
	.size	_ZStcoSt13_Ios_Fmtflags, .-_ZStcoSt13_Ios_Fmtflags
	.section	.text._ZStoRRSt13_Ios_FmtflagsS_,"axG",@progbits,_ZStoRRSt13_Ios_FmtflagsS_,comdat
	.weak	_ZStoRRSt13_Ios_FmtflagsS_
	.type	_ZStoRRSt13_Ios_FmtflagsS_, @function
_ZStoRRSt13_Ios_FmtflagsS_:
.LFB1164:
	.loc 1 100 3
	.cfi_startproc
	pushq	%rbp
	.cfi_def_cfa_offset 16
	.cfi_offset 6, -16
	movq	%rsp, %rbp
	.cfi_def_cfa_register 6
	subq	$16, %rsp
	movq	%rdi, -8(%rbp)
	movl	%esi, -12(%rbp)
	.loc 1 100 22
	movq	-8(%rbp), %rax
	movl	(%rax), %eax
	movl	-12(%rbp), %edx
	movl	%edx, %esi
	movl	%eax, %edi
	call	_ZStorSt13_Ios_FmtflagsS_
	.loc 1 100 16
	movq	-8(%rbp), %rdx
	movl	%eax, (%rdx)
	.loc 1 100 24
	movq	-8(%rbp), %rax
	.loc 1 100 29
	leave
	.cfi_def_cfa 7, 8
	ret
	.cfi_endproc
.LFE1164:
	.size	_ZStoRRSt13_Ios_FmtflagsS_, .-_ZStoRRSt13_Ios_FmtflagsS_
	.section	.text._ZStaNRSt13_Ios_FmtflagsS_,"axG",@progbits,_ZStaNRSt13_Ios_FmtflagsS_,comdat
	.weak	_ZStaNRSt13_Ios_FmtflagsS_
	.type	_ZStaNRSt13_Ios_FmtflagsS_, @function
_ZStaNRSt13_Ios_FmtflagsS_:
.LFB1165:
	.loc 1 104 3
	.cfi_startproc
	pushq	%rbp
	.cfi_def_cfa_offset 16
	.cfi_offset 6, -16
	movq	%rsp, %rbp
	.cfi_def_cfa_register 6
	subq	$16, %rsp
	movq	%rdi, -8(%rbp)
	movl	%esi, -12(%rbp)
	.loc 1 104 22
	movq	-8(%rbp), %rax
	movl	(%rax), %eax
	movl	-12(%rbp), %edx
	movl	%edx, %esi
	movl	%eax, %edi
	call	_ZStanSt13_Ios_FmtflagsS_
	.loc 1 104 16
	movq	-8(%rbp), %rdx
	movl	%eax, (%rdx)
	.loc 1 104 24
	movq	-8(%rbp), %rax
	.loc 1 104 29
	leave
	.cfi_def_cfa 7, 8
	ret
	.cfi_endproc
.LFE1165:
	.size	_ZStaNRSt13_Ios_FmtflagsS_, .-_ZStaNRSt13_Ios_FmtflagsS_
	.section	.text._ZNSt8ios_base4setfESt13_Ios_FmtflagsS0_,"axG",@progbits,_ZNSt8ios_base4setfESt13_Ios_FmtflagsS0_,comdat
	.align 2
	.weak	_ZNSt8ios_base4setfESt13_Ios_FmtflagsS0_
	.type	_ZNSt8ios_base4setfESt13_Ios_FmtflagsS0_, @function
_ZNSt8ios_base4setfESt13_Ios_FmtflagsS0_:
.LFB1194:
	.loc 1 693 5
	.cfi_startproc
	pushq	%rbp
	.cfi_def_cfa_offset 16
	.cfi_offset 6, -16
	movq	%rsp, %rbp
	.cfi_def_cfa_register 6
	subq	$32, %rsp
	movq	%rdi, -24(%rbp)
	movl	%esi, -28(%rbp)
	movl	%edx, -32(%rbp)
	.loc 1 695 16
	movq	-24(%rbp), %rax
	movl	24(%rax), %eax
	movl	%eax, -4(%rbp)
	.loc 1 696 20
	movl	-32(%rbp), %eax
	movl	%eax, %edi
	call	_ZStcoSt13_Ios_Fmtflags
	movl	%eax, %edx
	.loc 1 696 7
	movq	-24(%rbp), %rax
	addq	$24, %rax
	.loc 1 696 20
	movl	%edx, %esi
	movq	%rax, %rdi
	call	_ZStaNRSt13_Ios_FmtflagsS_
	.loc 1 697 36
	movl	-32(%rbp), %edx
	movl	-28(%rbp), %eax
	movl	%edx, %esi
	movl	%eax, %edi
	call	_ZStanSt13_Ios_FmtflagsS_
	movl	%eax, %edx
	.loc 1 697 7
	movq	-24(%rbp), %rax
	addq	$24, %rax
	.loc 1 697 36
	movl	%edx, %esi
	movq	%rax, %rdi
	call	_ZStoRRSt13_Ios_FmtflagsS_
	.loc 1 698 14
	movl	-4(%rbp), %eax
	.loc 1 699 5
	leave
	.cfi_def_cfa 7, 8
	ret
	.cfi_endproc
.LFE1194:
	.size	_ZNSt8ios_base4setfESt13_Ios_FmtflagsS0_, .-_ZNSt8ios_base4setfESt13_Ios_FmtflagsS0_
	.section	.text._ZSt4leftRSt8ios_base,"axG",@progbits,_ZSt4leftRSt8ios_base,comdat
	.weak	_ZSt4leftRSt8ios_base
	.type	_ZSt4leftRSt8ios_base, @function
_ZSt4leftRSt8ios_base:
.LFB1219:
	.loc 1 1030 3
	.cfi_startproc
	pushq	%rbp
	.cfi_def_cfa_offset 16
	.cfi_offset 6, -16
	movq	%rsp, %rbp
	.cfi_def_cfa_register 6
	subq	$16, %rsp
	movq	%rdi, -8(%rbp)
	.loc 1 1031 16
	movq	-8(%rbp), %rax
	movl	$176, %edx
	movl	$32, %esi
	movq	%rax, %rdi
	call	_ZNSt8ios_base4setfESt13_Ios_FmtflagsS0_
	.loc 1 1032 12
	movq	-8(%rbp), %rax
	.loc 1 1033 3
	leave
	.cfi_def_cfa 7, 8
	ret
	.cfi_endproc
.LFE1219:
	.size	_ZSt4leftRSt8ios_base, .-_ZSt4leftRSt8ios_base
	.local	_ZStL8__ioinit
	.comm	_ZStL8__ioinit,1,1
	.section	.rodata
	.type	_ZStL13allocator_arg, @object
	.size	_ZStL13allocator_arg, 1
_ZStL13allocator_arg:
	.zero	1
	.type	_ZStL6ignore, @object
	.size	_ZStL6ignore, 1
_ZStL6ignore:
	.zero	1
	.section	.text._ZSt4setwi,"axG",@progbits,_ZSt4setwi,comdat
	.weak	_ZSt4setwi
	.type	_ZSt4setwi, @function
_ZSt4setwi:
.LFB2156:
	.file 2 "/usr/include/c++/10/iomanip"
	.loc 2 226 3
	.cfi_startproc
	pushq	%rbp
	.cfi_def_cfa_offset 16
	.cfi_offset 6, -16
	movq	%rsp, %rbp
	.cfi_def_cfa_register 6
	movl	%edi, -4(%rbp)
	.loc 2 226 18
	movl	-4(%rbp), %eax
	.loc 2 226 21
	popq	%rbp
	.cfi_def_cfa 7, 8
	ret
	.cfi_endproc
.LFE2156:
	.size	_ZSt4setwi, .-_ZSt4setwi
	.section	.text._ZNKSt6chrono8durationIlSt5ratioILl1ELl1000000000EEE5countEv,"axG",@progbits,_ZNKSt6chrono8durationIlSt5ratioILl1ELl1000000000EEE5countEv,comdat
	.align 2
	.weak	_ZNKSt6chrono8durationIlSt5ratioILl1ELl1000000000EEE5countEv
	.type	_ZNKSt6chrono8durationIlSt5ratioILl1ELl1000000000EEE5countEv, @function
_ZNKSt6chrono8durationIlSt5ratioILl1ELl1000000000EEE5countEv:
.LFB6511:
	.file 3 "/usr/include/c++/10/chrono"
	.loc 3 486 2
	.cfi_startproc
	pushq	%rbp
	.cfi_def_cfa_offset 16
	.cfi_offset 6, -16
	movq	%rsp, %rbp
	.cfi_def_cfa_register 6
	movq	%rdi, -8(%rbp)
	.loc 3 487 11
	movq	-8(%rbp), %rax
	movq	(%rax), %rax
	.loc 3 487 16
	popq	%rbp
	.cfi_def_cfa 7, 8
	ret
	.cfi_endproc
.LFE6511:
	.size	_ZNKSt6chrono8durationIlSt5ratioILl1ELl1000000000EEE5countEv, .-_ZNKSt6chrono8durationIlSt5ratioILl1ELl1000000000EEE5countEv
	.section	.text._ZNSt6chrono8durationIlSt5ratioILl1ELl1000000000EEEC1IlvEERKT_,"axG",@progbits,_ZNSt6chrono8durationIlSt5ratioILl1ELl1000000000EEEC1IlvEERKT_,comdat
	.align 2
	.weak	_ZNSt6chrono8durationIlSt5ratioILl1ELl1000000000EEEC1IlvEERKT_
	.type	_ZNSt6chrono8durationIlSt5ratioILl1ELl1000000000EEEC1IlvEERKT_, @function
_ZNSt6chrono8durationIlSt5ratioILl1ELl1000000000EEEC1IlvEERKT_:
.LFB6516:
	.loc 3 470 23
	.cfi_startproc
	pushq	%rbp
	.cfi_def_cfa_offset 16
	.cfi_offset 6, -16
	movq	%rsp, %rbp
	.cfi_def_cfa_register 6
	movq	%rdi, -8(%rbp)
	movq	%rsi, -16(%rbp)
.LBB29:
	.loc 3 471 10
	movq	-16(%rbp), %rax
	movq	(%rax), %rdx
	.loc 3 471 33
	movq	-8(%rbp), %rax
	movq	%rdx, (%rax)
.LBE29:
	.loc 3 471 37
	nop
	popq	%rbp
	.cfi_def_cfa 7, 8
	ret
	.cfi_endproc
.LFE6516:
	.size	_ZNSt6chrono8durationIlSt5ratioILl1ELl1000000000EEEC1IlvEERKT_, .-_ZNSt6chrono8durationIlSt5ratioILl1ELl1000000000EEEC1IlvEERKT_
	.section	.text._Z5rdtscv,"axG",@progbits,_Z5rdtscv,comdat
	.weak	_Z5rdtscv
	.type	_Z5rdtscv, @function
_Z5rdtscv:
.LFB6770:
	.file 4 "lab1.cpp"
	.loc 4 12 1
	.cfi_startproc
	pushq	%rbp
	.cfi_def_cfa_offset 16
	.cfi_offset 6, -16
	movq	%rsp, %rbp
	.cfi_def_cfa_register 6
	.loc 4 14 5
#APP
# 14 "lab1.cpp" 1
	rdtsc
# 0 "" 2
#NO_APP
	movl	%eax, -4(%rbp)
	movl	%edx, -8(%rbp)
	.loc 4 16 13
	movl	-8(%rbp), %eax
	.loc 4 16 27
	salq	$32, %rax
	movq	%rax, %rdx
	.loc 4 16 36
	movl	-4(%rbp), %eax
	orq	%rdx, %rax
	.loc 4 17 1
	popq	%rbp
	.cfi_def_cfa 7, 8
	ret
	.cfi_endproc
.LFE6770:
	.size	_Z5rdtscv, .-_Z5rdtscv
	.section	.rodata
.LC0:
	.string	"Iterations"
.LC1:
	.string	"time"
.LC2:
	.string	"Operations / sec"
.LC3:
	.string	"Processor tacts"
.LC4:
	.string	"Proc. tacts / sec\n"
	.text
	.globl	_Z10print_headv
	.type	_Z10print_headv, @function
_Z10print_headv:
.LFB6771:
	.loc 4 20 1
	.cfi_startproc
	pushq	%rbp
	.cfi_def_cfa_offset 16
	.cfi_offset 6, -16
	movq	%rsp, %rbp
	.cfi_def_cfa_register 6
	pushq	%rbx
	subq	$8, %rsp
	.cfi_offset 3, -24
	.loc 4 21 27
	movl	$18, %edi
	call	_ZSt4setwi
	movl	%eax, %esi
	leaq	_ZSt4cout(%rip), %rdi
	call	_ZStlsIcSt11char_traitsIcEERSt13basic_ostreamIT_T0_ES6_St5_Setw@PLT
	.loc 4 21 37
	leaq	_ZSt4leftRSt8ios_base(%rip), %rsi
	movq	%rax, %rdi
	call	_ZNSolsEPFRSt8ios_baseS0_E@PLT
	.loc 4 21 73
	leaq	.LC0(%rip), %rsi
	movq	%rax, %rdi
	call	_ZStlsISt11char_traitsIcEERSt13basic_ostreamIcT_ES5_PKc@PLT
	movq	%rax, %rbx
	movl	$18, %edi
	call	_ZSt4setwi
	movl	%eax, %esi
	movq	%rbx, %rdi
	call	_ZStlsIcSt11char_traitsIcEERSt13basic_ostreamIT_T0_ES6_St5_Setw@PLT
	.loc 4 21 83
	leaq	_ZSt4leftRSt8ios_base(%rip), %rsi
	movq	%rax, %rdi
	call	_ZNSolsEPFRSt8ios_baseS0_E@PLT
	.loc 4 22 18
	leaq	.LC1(%rip), %rsi
	movq	%rax, %rdi
	call	_ZStlsISt11char_traitsIcEERSt13basic_ostreamIcT_ES5_PKc@PLT
	movq	%rax, %rbx
	movl	$18, %edi
	call	_ZSt4setwi
	movl	%eax, %esi
	movq	%rbx, %rdi
	call	_ZStlsIcSt11char_traitsIcEERSt13basic_ostreamIT_T0_ES6_St5_Setw@PLT
	.loc 4 22 28
	leaq	_ZSt4leftRSt8ios_base(%rip), %rsi
	movq	%rax, %rdi
	call	_ZNSolsEPFRSt8ios_baseS0_E@PLT
	.loc 4 22 70
	leaq	.LC2(%rip), %rsi
	movq	%rax, %rdi
	call	_ZStlsISt11char_traitsIcEERSt13basic_ostreamIcT_ES5_PKc@PLT
	movq	%rax, %rbx
	movl	$18, %edi
	call	_ZSt4setwi
	movl	%eax, %esi
	movq	%rbx, %rdi
	call	_ZStlsIcSt11char_traitsIcEERSt13basic_ostreamIT_T0_ES6_St5_Setw@PLT
	.loc 4 22 80
	leaq	_ZSt4leftRSt8ios_base(%rip), %rsi
	movq	%rax, %rdi
	call	_ZNSolsEPFRSt8ios_baseS0_E@PLT
	.loc 4 23 18
	leaq	.LC3(%rip), %rsi
	movq	%rax, %rdi
	call	_ZStlsISt11char_traitsIcEERSt13basic_ostreamIcT_ES5_PKc@PLT
	movq	%rax, %rbx
	movl	$18, %edi
	call	_ZSt4setwi
	movl	%eax, %esi
	movq	%rbx, %rdi
	call	_ZStlsIcSt11char_traitsIcEERSt13basic_ostreamIT_T0_ES6_St5_Setw@PLT
	.loc 4 23 28
	leaq	_ZSt4leftRSt8ios_base(%rip), %rsi
	movq	%rax, %rdi
	call	_ZNSolsEPFRSt8ios_baseS0_E@PLT
	.loc 4 23 36
	leaq	.LC4(%rip), %rsi
	movq	%rax, %rdi
	call	_ZStlsISt11char_traitsIcEERSt13basic_ostreamIcT_ES5_PKc@PLT
	.loc 4 24 1
	nop
	movq	-8(%rbp), %rbx
	leave
	.cfi_def_cfa 7, 8
	ret
	.cfi_endproc
.LFE6771:
	.size	_Z10print_headv, .-_Z10print_headv
	.section	.text._ZNKSt6chrono8durationIdSt5ratioILl1ELl1EEE5countEv,"axG",@progbits,_ZNKSt6chrono8durationIdSt5ratioILl1ELl1EEE5countEv,comdat
	.align 2
	.weak	_ZNKSt6chrono8durationIdSt5ratioILl1ELl1EEE5countEv
	.type	_ZNKSt6chrono8durationIdSt5ratioILl1ELl1EEE5countEv, @function
_ZNKSt6chrono8durationIdSt5ratioILl1ELl1EEE5countEv:
.LFB6774:
	.loc 3 486 2
	.cfi_startproc
	pushq	%rbp
	.cfi_def_cfa_offset 16
	.cfi_offset 6, -16
	movq	%rsp, %rbp
	.cfi_def_cfa_register 6
	movq	%rdi, -8(%rbp)
	.loc 3 487 11
	movq	-8(%rbp), %rax
	vmovsd	(%rax), %xmm0
	vmovq	%xmm0, %rax
	.loc 3 487 16
	vmovq	%rax, %xmm0
	popq	%rbp
	.cfi_def_cfa 7, 8
	ret
	.cfi_endproc
.LFE6774:
	.size	_ZNKSt6chrono8durationIdSt5ratioILl1ELl1EEE5countEv, .-_ZNKSt6chrono8durationIdSt5ratioILl1ELl1EEE5countEv
	.section	.rodata
.LC5:
	.string	"Simple division\n"
.LC9:
	.string	"\n\n"
.LC10:
	.string	"SSE2 division\n"
.LC12:
	.string	"AVX2 division\n"
	.text
	.globl	main
	.type	main, @function
main:
.LFB6772:
	.loc 4 27 1
	.cfi_startproc
	leaq	8(%rsp), %r10
	.cfi_def_cfa 10, 0
	andq	$-32, %rsp
	pushq	-8(%r10)
	pushq	%rbp
	movq	%rsp, %rbp
	.cfi_escape 0x10,0x6,0x2,0x76,0
	pushq	%r10
	.cfi_escape 0xf,0x3,0x76,0x78,0x6
	pushq	%rbx
	subq	$768, %rsp
	.cfi_escape 0x10,0x3,0x2,0x76,0x70
	.loc 4 28 15
	leaq	.LC5(%rip), %rsi
	leaq	_ZSt4cout(%rip), %rdi
	call	_ZStlsISt11char_traitsIcEERSt13basic_ostreamIcT_ES5_PKc@PLT
	.loc 4 30 12
	call	_Z10print_headv
.LBB30:
	.loc 4 34 16
	movw	$0, -18(%rbp)
.L33:
	.loc 4 34 25 discriminator 1
	cmpw	$8, -18(%rbp)
	ja	.L26
.LBB31:
	.loc 4 36 9
	vmovsd	.LC6(%rip), %xmm0
	vmovsd	%xmm0, -48(%rbp)
	.loc 4 37 9
	vmovsd	.LC7(%rip), %xmm0
	vmovsd	%xmm0, -56(%rbp)
	.loc 4 39 24
	movzwl	-18(%rbp), %eax
	vcvtsi2sdl	%eax, %xmm0, %xmm0
	movq	.LC8(%rip), %rax
	vmovsd	%xmm0, %xmm0, %xmm1
	vmovq	%rax, %xmm0
	call	pow@PLT
	.loc 4 39 30
	vcvttsd2siq	%xmm0, %rax
	movl	%eax, -60(%rbp)
	.loc 4 41 51
	call	_ZNSt6chrono3_V212system_clock3nowEv@PLT
	movq	%rax, -728(%rbp)
	.loc 4 43 26
	call	_Z5rdtscv
	movq	%rax, -72(%rbp)
.LBB32:
	.loc 4 45 21
	movl	$0, -24(%rbp)
.L28:
	.loc 4 45 30 discriminator 3
	movl	-24(%rbp), %eax
	cmpl	-60(%rbp), %eax
	jnb	.L27
	.loc 4 47 24 discriminator 2
	vmovsd	-48(%rbp), %xmm0
	vdivsd	-56(%rbp), %xmm0, %xmm0
	vmovsd	%xmm0, -80(%rbp)
	.loc 4 45 7 discriminator 2
	incl	-24(%rbp)
	jmp	.L28
.L27:
.LBE32:
	.loc 4 50 26
	call	_Z5rdtscv
	movq	%rax, -88(%rbp)
	.loc 4 52 79
	call	_ZNSt6chrono3_V212system_clock3nowEv@PLT
	movq	%rax, -600(%rbp)
	.loc 4 52 83
	leaq	-728(%rbp), %rdx
	leaq	-600(%rbp), %rax
	movq	%rdx, %rsi
	movq	%rax, %rdi
	call	_ZNSt6chronomiINS_3_V212system_clockENS_8durationIlSt5ratioILl1ELl1000000000EEEES6_EENSt11common_typeIJT0_T1_EE4typeERKNS_10time_pointIT_S8_EERKNSC_ISD_S9_EE
	movq	%rax, -608(%rbp)
	leaq	-608(%rbp), %rdx
	leaq	-736(%rbp), %rax
	movq	%rdx, %rsi
	movq	%rax, %rdi
	call	_ZNSt6chrono8durationIdSt5ratioILl1ELl1EEEC1IlS1_ILl1ELl1000000000EEvEERKNS0_IT_T0_EE
	.loc 4 54 38
	leaq	-736(%rbp), %rax
	movq	%rax, %rdi
	call	_ZNKSt6chrono8durationIdSt5ratioILl1ELl1EEE5countEv
	vmovq	%xmm0, %rax
	movq	%rax, -96(%rbp)
	.loc 4 55 52
	movl	-60(%rbp), %eax
	testq	%rax, %rax
	js	.L29
	vcvtsi2sdq	%rax, %xmm0, %xmm0
	jmp	.L30
.L29:
	movq	%rax, %rdx
	shrq	%rdx
	andl	$1, %eax
	orq	%rax, %rdx
	vcvtsi2sdq	%rdx, %xmm0, %xmm0
	vaddsd	%xmm0, %xmm0, %xmm0
.L30:
	.loc 4 55 21
	vdivsd	-96(%rbp), %xmm0, %xmm0
	vmovsd	%xmm0, -104(%rbp)
	.loc 4 56 23
	movq	-88(%rbp), %rax
	subq	-72(%rbp), %rax
	movq	%rax, -112(%rbp)
	.loc 4 57 68
	movq	-112(%rbp), %rax
	testq	%rax, %rax
	js	.L31
	vcvtsi2sdq	%rax, %xmm0, %xmm0
	jmp	.L32
.L31:
	movq	%rax, %rdx
	shrq	%rdx
	andl	$1, %eax
	orq	%rax, %rdx
	vcvtsi2sdq	%rdx, %xmm0, %xmm0
	vaddsd	%xmm0, %xmm0, %xmm0
.L32:
	.loc 4 57 21
	vdivsd	-96(%rbp), %xmm0, %xmm0
	vmovsd	%xmm0, -120(%rbp)
	.loc 4 59 28
	movl	$18, %edi
	call	_ZSt4setwi
	movl	%eax, %esi
	leaq	_ZSt4cout(%rip), %rdi
	call	_ZStlsIcSt11char_traitsIcEERSt13basic_ostreamIT_T0_ES6_St5_Setw@PLT
	.loc 4 59 38
	leaq	_ZSt4leftRSt8ios_base(%rip), %rsi
	movq	%rax, %rdi
	call	_ZNSolsEPFRSt8ios_baseS0_E@PLT
	movq	%rax, %rdx
	.loc 4 59 46
	movl	-60(%rbp), %eax
	movl	%eax, %esi
	movq	%rdx, %rdi
	call	_ZNSolsEj@PLT
	movq	%rax, %rbx
	.loc 4 59 68
	movl	$18, %edi
	call	_ZSt4setwi
	movl	%eax, %esi
	movq	%rbx, %rdi
	call	_ZStlsIcSt11char_traitsIcEERSt13basic_ostreamIT_T0_ES6_St5_Setw@PLT
	.loc 4 59 78
	leaq	_ZSt4leftRSt8ios_base(%rip), %rsi
	movq	%rax, %rdi
	call	_ZNSolsEPFRSt8ios_baseS0_E@PLT
	movq	%rax, %rdx
	.loc 4 59 87
	movq	-96(%rbp), %rax
	vmovq	%rax, %xmm0
	movq	%rdx, %rdi
	call	_ZNSolsEd@PLT
	movq	%rax, %rbx
	.loc 4 59 110
	movl	$18, %edi
	call	_ZSt4setwi
	movl	%eax, %esi
	movq	%rbx, %rdi
	call	_ZStlsIcSt11char_traitsIcEERSt13basic_ostreamIT_T0_ES6_St5_Setw@PLT
	.loc 4 60 11
	leaq	_ZSt4leftRSt8ios_base(%rip), %rsi
	movq	%rax, %rdi
	call	_ZNSolsEPFRSt8ios_baseS0_E@PLT
	movq	%rax, %rdx
	.loc 4 60 19
	movq	-104(%rbp), %rax
	vmovq	%rax, %xmm0
	movq	%rdx, %rdi
	call	_ZNSolsEd@PLT
	movq	%rax, %rbx
	.loc 4 60 56
	movl	$18, %edi
	call	_ZSt4setwi
	movl	%eax, %esi
	movq	%rbx, %rdi
	call	_ZStlsIcSt11char_traitsIcEERSt13basic_ostreamIT_T0_ES6_St5_Setw@PLT
	.loc 4 60 66
	leaq	_ZSt4leftRSt8ios_base(%rip), %rsi
	movq	%rax, %rdi
	call	_ZNSolsEPFRSt8ios_baseS0_E@PLT
	movq	%rax, %rdx
	.loc 4 60 74
	movq	-112(%rbp), %rax
	movq	%rax, %rsi
	movq	%rdx, %rdi
	call	_ZNSolsEm@PLT
	movq	%rax, %rbx
	.loc 4 60 106
	movl	$18, %edi
	call	_ZSt4setwi
	movl	%eax, %esi
	movq	%rbx, %rdi
	call	_ZStlsIcSt11char_traitsIcEERSt13basic_ostreamIT_T0_ES6_St5_Setw@PLT
	.loc 4 61 8
	leaq	_ZSt4leftRSt8ios_base(%rip), %rsi
	movq	%rax, %rdi
	call	_ZNSolsEPFRSt8ios_baseS0_E@PLT
	movq	%rax, %rdx
	.loc 4 61 17
	movq	-120(%rbp), %rax
	vmovq	%rax, %xmm0
	movq	%rdx, %rdi
	call	_ZNSolsEd@PLT
	.loc 4 61 48
	movl	$10, %esi
	movq	%rax, %rdi
	call	_ZStlsISt11char_traitsIcEERSt13basic_ostreamIcT_ES5_c@PLT
.LBE31:
	.loc 4 34 2
	incw	-18(%rbp)
	jmp	.L33
.L26:
.LBE30:
	.loc 4 65 15
	leaq	.LC9(%rip), %rsi
	leaq	_ZSt4cout(%rip), %rdi
	call	_ZStlsISt11char_traitsIcEERSt13basic_ostreamIcT_ES5_PKc@PLT
	.loc 4 67 15
	leaq	.LC10(%rip), %rsi
	leaq	_ZSt4cout(%rip), %rdi
	call	_ZStlsISt11char_traitsIcEERSt13basic_ostreamIcT_ES5_PKc@PLT
	.loc 4 69 12
	call	_Z10print_headv
	.loc 4 71 15
	vmovsd	.LC11(%rip), %xmm0
	vmovsd	%xmm0, -624(%rbp)
	vmovsd	.LC11(%rip), %xmm0
	vmovsd	%xmm0, -616(%rbp)
	.loc 4 72 15
	vmovsd	.LC7(%rip), %xmm0
	vmovsd	%xmm0, -640(%rbp)
	vmovsd	.LC7(%rip), %xmm0
	vmovsd	%xmm0, -632(%rbp)
.LBB33:
	.loc 4 78 23
	movw	$0, -26(%rbp)
.L47:
	.loc 4 78 32 discriminator 1
	cmpw	$8, -26(%rbp)
	ja	.L34
.LBB34:
.LBB35:
.LBB36:
	.file 5 "/usr/lib/gcc/x86_64-linux-gnu/10/include/emmintrin.h"
	.loc 5 110 44
	vxorpd	%xmm0, %xmm0, %xmm0
.LBE36:
.LBE35:
	.loc 4 80 26
	vmovapd	%xmm0, -144(%rbp)
.LBB37:
.LBB38:
	.loc 5 110 44
	vxorpd	%xmm0, %xmm0, %xmm0
.LBE38:
.LBE37:
	.loc 4 81 26
	vmovapd	%xmm0, -160(%rbp)
.LBB39:
.LBB40:
	.loc 5 110 44
	vxorpd	%xmm0, %xmm0, %xmm0
.LBE40:
.LBE39:
	.loc 4 82 26
	vmovapd	%xmm0, -176(%rbp)
	leaq	-624(%rbp), %rax
	movq	%rax, -424(%rbp)
.LBB41:
.LBB42:
	.loc 5 124 22
	movq	-424(%rbp), %rax
	vmovapd	(%rax), %xmm0
.LBE42:
.LBE41:
	.loc 4 84 23
	vmovapd	%xmm0, -144(%rbp)
	leaq	-640(%rbp), %rax
	movq	%rax, -416(%rbp)
.LBB43:
.LBB44:
	.loc 5 124 22
	movq	-416(%rbp), %rax
	vmovapd	(%rax), %xmm0
.LBE44:
.LBE43:
	.loc 4 85 30
	vmovapd	%xmm0, -160(%rbp)
	.loc 4 87 28
	movzwl	-26(%rbp), %eax
	vcvtsi2sdl	%eax, %xmm0, %xmm0
	movq	.LC8(%rip), %rax
	vmovsd	%xmm0, %xmm0, %xmm1
	vmovq	%rax, %xmm0
	call	pow@PLT
	.loc 4 87 34
	vcvttsd2siq	%xmm0, %rax
	movl	%eax, -180(%rbp)
	.loc 4 89 51
	call	_ZNSt6chrono3_V212system_clock3nowEv@PLT
	movq	%rax, -744(%rbp)
	.loc 4 91 27
	call	_Z5rdtscv
	movq	%rax, -192(%rbp)
.LBB45:
	.loc 4 93 21
	movl	$0, -32(%rbp)
.L42:
	.loc 4 93 30 discriminator 3
	movl	-32(%rbp), %eax
	cmpl	-180(%rbp), %eax
	jnb	.L40
	vmovapd	-144(%rbp), %xmm0
	vmovapd	%xmm0, -448(%rbp)
	vmovapd	-160(%rbp), %xmm0
	vmovapd	%xmm0, -464(%rbp)
.LBB46:
.LBB47:
	.loc 5 284 46 discriminator 2
	vmovapd	-448(%rbp), %xmm0
	vdivpd	-464(%rbp), %xmm0, %xmm0
.LBE47:
.LBE46:
	.loc 4 95 23 discriminator 2
	vmovapd	%xmm0, -176(%rbp)
	.loc 4 93 7 discriminator 2
	incl	-32(%rbp)
	jmp	.L42
.L40:
.LBE45:
	.loc 4 98 26
	call	_Z5rdtscv
	movq	%rax, -200(%rbp)
	.loc 4 100 79
	call	_ZNSt6chrono3_V212system_clock3nowEv@PLT
	movq	%rax, -584(%rbp)
	.loc 4 100 83
	leaq	-744(%rbp), %rdx
	leaq	-584(%rbp), %rax
	movq	%rdx, %rsi
	movq	%rax, %rdi
	call	_ZNSt6chronomiINS_3_V212system_clockENS_8durationIlSt5ratioILl1ELl1000000000EEEES6_EENSt11common_typeIJT0_T1_EE4typeERKNS_10time_pointIT_S8_EERKNSC_ISD_S9_EE
	movq	%rax, -592(%rbp)
	leaq	-592(%rbp), %rdx
	leaq	-752(%rbp), %rax
	movq	%rdx, %rsi
	movq	%rax, %rdi
	call	_ZNSt6chrono8durationIdSt5ratioILl1ELl1EEEC1IlS1_ILl1ELl1000000000EEvEERKNS0_IT_T0_EE
	.loc 4 102 38
	leaq	-752(%rbp), %rax
	movq	%rax, %rdi
	call	_ZNKSt6chrono8durationIdSt5ratioILl1ELl1EEE5countEv
	vmovq	%xmm0, %rax
	movq	%rax, -208(%rbp)
	.loc 4 103 52
	movl	-180(%rbp), %eax
	testq	%rax, %rax
	js	.L43
	vcvtsi2sdq	%rax, %xmm0, %xmm0
	jmp	.L44
.L43:
	movq	%rax, %rdx
	shrq	%rdx
	andl	$1, %eax
	orq	%rax, %rdx
	vcvtsi2sdq	%rdx, %xmm0, %xmm0
	vaddsd	%xmm0, %xmm0, %xmm0
.L44:
	.loc 4 103 21
	vdivsd	-208(%rbp), %xmm0, %xmm0
	vmovsd	%xmm0, -216(%rbp)
	.loc 4 104 23
	movq	-200(%rbp), %rax
	subq	-192(%rbp), %rax
	movq	%rax, -224(%rbp)
	.loc 4 105 68
	movq	-224(%rbp), %rax
	testq	%rax, %rax
	js	.L45
	vcvtsi2sdq	%rax, %xmm0, %xmm0
	jmp	.L46
.L45:
	movq	%rax, %rdx
	shrq	%rdx
	andl	$1, %eax
	orq	%rax, %rdx
	vcvtsi2sdq	%rdx, %xmm0, %xmm0
	vaddsd	%xmm0, %xmm0, %xmm0
.L46:
	.loc 4 105 21
	vdivsd	-208(%rbp), %xmm0, %xmm0
	vmovsd	%xmm0, -232(%rbp)
	.loc 4 107 28
	movl	$18, %edi
	call	_ZSt4setwi
	movl	%eax, %esi
	leaq	_ZSt4cout(%rip), %rdi
	call	_ZStlsIcSt11char_traitsIcEERSt13basic_ostreamIT_T0_ES6_St5_Setw@PLT
	.loc 4 107 38
	leaq	_ZSt4leftRSt8ios_base(%rip), %rsi
	movq	%rax, %rdi
	call	_ZNSolsEPFRSt8ios_baseS0_E@PLT
	movq	%rax, %rdx
	.loc 4 107 46
	movl	-180(%rbp), %eax
	movl	%eax, %esi
	movq	%rdx, %rdi
	call	_ZNSolsEj@PLT
	movq	%rax, %rbx
	.loc 4 107 68
	movl	$18, %edi
	call	_ZSt4setwi
	movl	%eax, %esi
	movq	%rbx, %rdi
	call	_ZStlsIcSt11char_traitsIcEERSt13basic_ostreamIT_T0_ES6_St5_Setw@PLT
	.loc 4 107 78
	leaq	_ZSt4leftRSt8ios_base(%rip), %rsi
	movq	%rax, %rdi
	call	_ZNSolsEPFRSt8ios_baseS0_E@PLT
	movq	%rax, %rdx
	.loc 4 107 87
	movq	-208(%rbp), %rax
	vmovq	%rax, %xmm0
	movq	%rdx, %rdi
	call	_ZNSolsEd@PLT
	movq	%rax, %rbx
	.loc 4 107 110
	movl	$18, %edi
	call	_ZSt4setwi
	movl	%eax, %esi
	movq	%rbx, %rdi
	call	_ZStlsIcSt11char_traitsIcEERSt13basic_ostreamIT_T0_ES6_St5_Setw@PLT
	.loc 4 108 11
	leaq	_ZSt4leftRSt8ios_base(%rip), %rsi
	movq	%rax, %rdi
	call	_ZNSolsEPFRSt8ios_baseS0_E@PLT
	movq	%rax, %rdx
	.loc 4 108 19
	movq	-216(%rbp), %rax
	vmovq	%rax, %xmm0
	movq	%rdx, %rdi
	call	_ZNSolsEd@PLT
	movq	%rax, %rbx
	.loc 4 108 56
	movl	$18, %edi
	call	_ZSt4setwi
	movl	%eax, %esi
	movq	%rbx, %rdi
	call	_ZStlsIcSt11char_traitsIcEERSt13basic_ostreamIT_T0_ES6_St5_Setw@PLT
	.loc 4 108 66
	leaq	_ZSt4leftRSt8ios_base(%rip), %rsi
	movq	%rax, %rdi
	call	_ZNSolsEPFRSt8ios_baseS0_E@PLT
	movq	%rax, %rdx
	.loc 4 108 74
	movq	-224(%rbp), %rax
	movq	%rax, %rsi
	movq	%rdx, %rdi
	call	_ZNSolsEm@PLT
	movq	%rax, %rbx
	.loc 4 108 106
	movl	$18, %edi
	call	_ZSt4setwi
	movl	%eax, %esi
	movq	%rbx, %rdi
	call	_ZStlsIcSt11char_traitsIcEERSt13basic_ostreamIT_T0_ES6_St5_Setw@PLT
	.loc 4 109 8
	leaq	_ZSt4leftRSt8ios_base(%rip), %rsi
	movq	%rax, %rdi
	call	_ZNSolsEPFRSt8ios_baseS0_E@PLT
	movq	%rax, %rdx
	.loc 4 109 17
	movq	-232(%rbp), %rax
	vmovq	%rax, %xmm0
	movq	%rdx, %rdi
	call	_ZNSolsEd@PLT
	.loc 4 109 48
	movl	$10, %esi
	movq	%rax, %rdi
	call	_ZStlsISt11char_traitsIcEERSt13basic_ostreamIcT_ES5_c@PLT
.LBE34:
	.loc 4 78 9
	incw	-26(%rbp)
	jmp	.L47
.L34:
.LBE33:
	.loc 4 114 15
	leaq	.LC9(%rip), %rsi
	leaq	_ZSt4cout(%rip), %rdi
	call	_ZStlsISt11char_traitsIcEERSt13basic_ostreamIcT_ES5_PKc@PLT
	.loc 4 116 15
	leaq	.LC12(%rip), %rsi
	leaq	_ZSt4cout(%rip), %rdi
	call	_ZStlsISt11char_traitsIcEERSt13basic_ostreamIcT_ES5_PKc@PLT
	.loc 4 118 12
	call	_Z10print_headv
	.loc 4 120 27
	vmovsd	.LC6(%rip), %xmm0
	vmovsd	%xmm0, -688(%rbp)
	vmovsd	.LC6(%rip), %xmm0
	vmovsd	%xmm0, -680(%rbp)
	vmovsd	.LC6(%rip), %xmm0
	vmovsd	%xmm0, -672(%rbp)
	vmovsd	.LC6(%rip), %xmm0
	vmovsd	%xmm0, -664(%rbp)
	.loc 4 121 27
	vmovsd	.LC7(%rip), %xmm0
	vmovsd	%xmm0, -720(%rbp)
	vmovsd	.LC7(%rip), %xmm0
	vmovsd	%xmm0, -712(%rbp)
	vmovsd	.LC7(%rip), %xmm0
	vmovsd	%xmm0, -704(%rbp)
	vmovsd	.LC7(%rip), %xmm0
	vmovsd	%xmm0, -696(%rbp)
.LBB48:
	.loc 4 127 23
	movw	$0, -34(%rbp)
.L58:
	.loc 4 127 32 discriminator 1
	cmpw	$8, -34(%rbp)
	ja	.L48
	leaq	-688(%rbp), %rax
	movq	%rax, -480(%rbp)
.LBB49:
.LBB50:
.LBB51:
	.file 6 "/usr/lib/gcc/x86_64-linux-gnu/10/include/avxintrin.h"
	.loc 6 862 22
	movq	-480(%rbp), %rax
	vmovapd	(%rax), %ymm0
.LBE51:
.LBE50:
	.loc 4 129 38
	vmovapd	%ymm0, -272(%rbp)
	leaq	-720(%rbp), %rax
	movq	%rax, -472(%rbp)
.LBB52:
.LBB53:
	.loc 6 862 22
	movq	-472(%rbp), %rax
	vmovapd	(%rax), %ymm0
.LBE53:
.LBE52:
	.loc 4 130 38
	vmovapd	%ymm0, -304(%rbp)
	.loc 4 132 28
	movzwl	-34(%rbp), %eax
	vcvtsi2sdl	%eax, %xmm0, %xmm0
	movq	.LC8(%rip), %rax
	vmovsd	%xmm0, %xmm0, %xmm1
	vmovq	%rax, %xmm0
	call	pow@PLT
	.loc 4 132 34
	vcvttsd2siq	%xmm0, %rax
	movl	%eax, -308(%rbp)
	.loc 4 134 51
	call	_ZNSt6chrono3_V212system_clock3nowEv@PLT
	movq	%rax, -760(%rbp)
	.loc 4 136 26
	call	_Z5rdtscv
	movq	%rax, -320(%rbp)
.LBB54:
	.loc 4 138 21
	movl	$0, -40(%rbp)
.L53:
	.loc 4 138 39 discriminator 3
	movl	-308(%rbp), %eax
	shrl	$2, %eax
	.loc 4 138 30 discriminator 3
	cmpl	%eax, -40(%rbp)
	jnb	.L51
	vmovapd	-272(%rbp), %ymm0
	vmovapd	%ymm0, -528(%rbp)
	vmovapd	-304(%rbp), %ymm0
	vmovapd	%ymm0, -560(%rbp)
.LBB55:
.LBB56:
	.loc 6 237 46 discriminator 2
	vmovapd	-528(%rbp), %ymm0
	vdivpd	-560(%rbp), %ymm0, %ymm0
.LBE56:
.LBE55:
	.loc 4 140 41 discriminator 2
	vmovapd	%ymm0, -368(%rbp)
	.loc 4 138 7 discriminator 2
	incl	-40(%rbp)
	jmp	.L53
.L51:
.LBE54:
	.loc 4 143 26
	call	_Z5rdtscv
	movq	%rax, -376(%rbp)
	.loc 4 145 79
	call	_ZNSt6chrono3_V212system_clock3nowEv@PLT
	movq	%rax, -568(%rbp)
	.loc 4 145 83
	leaq	-760(%rbp), %rdx
	leaq	-568(%rbp), %rax
	movq	%rdx, %rsi
	movq	%rax, %rdi
	call	_ZNSt6chronomiINS_3_V212system_clockENS_8durationIlSt5ratioILl1ELl1000000000EEEES6_EENSt11common_typeIJT0_T1_EE4typeERKNS_10time_pointIT_S8_EERKNSC_ISD_S9_EE
	movq	%rax, -576(%rbp)
	leaq	-576(%rbp), %rdx
	leaq	-768(%rbp), %rax
	movq	%rdx, %rsi
	movq	%rax, %rdi
	call	_ZNSt6chrono8durationIdSt5ratioILl1ELl1EEEC1IlS1_ILl1ELl1000000000EEvEERKNS0_IT_T0_EE
	.loc 4 147 38
	leaq	-768(%rbp), %rax
	movq	%rax, %rdi
	call	_ZNKSt6chrono8durationIdSt5ratioILl1ELl1EEE5countEv
	vmovq	%xmm0, %rax
	movq	%rax, -384(%rbp)
	.loc 4 148 52
	movl	-308(%rbp), %eax
	testq	%rax, %rax
	js	.L54
	vcvtsi2sdq	%rax, %xmm0, %xmm0
	jmp	.L55
.L54:
	movq	%rax, %rdx
	shrq	%rdx
	andl	$1, %eax
	orq	%rax, %rdx
	vcvtsi2sdq	%rdx, %xmm0, %xmm0
	vaddsd	%xmm0, %xmm0, %xmm0
.L55:
	.loc 4 148 21
	vdivsd	-384(%rbp), %xmm0, %xmm0
	vmovsd	%xmm0, -392(%rbp)
	.loc 4 149 23
	movq	-376(%rbp), %rax
	subq	-320(%rbp), %rax
	movq	%rax, -400(%rbp)
	.loc 4 150 68
	movq	-400(%rbp), %rax
	testq	%rax, %rax
	js	.L56
	vcvtsi2sdq	%rax, %xmm0, %xmm0
	jmp	.L57
.L56:
	movq	%rax, %rdx
	shrq	%rdx
	andl	$1, %eax
	orq	%rax, %rdx
	vcvtsi2sdq	%rdx, %xmm0, %xmm0
	vaddsd	%xmm0, %xmm0, %xmm0
.L57:
	.loc 4 150 21
	vdivsd	-384(%rbp), %xmm0, %xmm0
	vmovsd	%xmm0, -408(%rbp)
	.loc 4 152 28
	movl	$18, %edi
	call	_ZSt4setwi
	movl	%eax, %esi
	leaq	_ZSt4cout(%rip), %rdi
	call	_ZStlsIcSt11char_traitsIcEERSt13basic_ostreamIT_T0_ES6_St5_Setw@PLT
	.loc 4 152 38
	leaq	_ZSt4leftRSt8ios_base(%rip), %rsi
	movq	%rax, %rdi
	call	_ZNSolsEPFRSt8ios_baseS0_E@PLT
	movq	%rax, %rdx
	.loc 4 152 46
	movl	-308(%rbp), %eax
	movl	%eax, %esi
	movq	%rdx, %rdi
	call	_ZNSolsEj@PLT
	movq	%rax, %rbx
	.loc 4 152 68
	movl	$18, %edi
	call	_ZSt4setwi
	movl	%eax, %esi
	movq	%rbx, %rdi
	call	_ZStlsIcSt11char_traitsIcEERSt13basic_ostreamIT_T0_ES6_St5_Setw@PLT
	.loc 4 152 78
	leaq	_ZSt4leftRSt8ios_base(%rip), %rsi
	movq	%rax, %rdi
	call	_ZNSolsEPFRSt8ios_baseS0_E@PLT
	movq	%rax, %rdx
	.loc 4 152 87
	movq	-384(%rbp), %rax
	vmovq	%rax, %xmm0
	movq	%rdx, %rdi
	call	_ZNSolsEd@PLT
	movq	%rax, %rbx
	.loc 4 152 110
	movl	$18, %edi
	call	_ZSt4setwi
	movl	%eax, %esi
	movq	%rbx, %rdi
	call	_ZStlsIcSt11char_traitsIcEERSt13basic_ostreamIT_T0_ES6_St5_Setw@PLT
	.loc 4 153 11
	leaq	_ZSt4leftRSt8ios_base(%rip), %rsi
	movq	%rax, %rdi
	call	_ZNSolsEPFRSt8ios_baseS0_E@PLT
	movq	%rax, %rdx
	.loc 4 153 19
	movq	-392(%rbp), %rax
	vmovq	%rax, %xmm0
	movq	%rdx, %rdi
	call	_ZNSolsEd@PLT
	movq	%rax, %rbx
	.loc 4 153 56
	movl	$18, %edi
	call	_ZSt4setwi
	movl	%eax, %esi
	movq	%rbx, %rdi
	call	_ZStlsIcSt11char_traitsIcEERSt13basic_ostreamIT_T0_ES6_St5_Setw@PLT
	.loc 4 153 66
	leaq	_ZSt4leftRSt8ios_base(%rip), %rsi
	movq	%rax, %rdi
	call	_ZNSolsEPFRSt8ios_baseS0_E@PLT
	movq	%rax, %rdx
	.loc 4 153 74
	movq	-400(%rbp), %rax
	movq	%rax, %rsi
	movq	%rdx, %rdi
	call	_ZNSolsEm@PLT
	movq	%rax, %rbx
	.loc 4 153 106
	movl	$18, %edi
	call	_ZSt4setwi
	movl	%eax, %esi
	movq	%rbx, %rdi
	call	_ZStlsIcSt11char_traitsIcEERSt13basic_ostreamIT_T0_ES6_St5_Setw@PLT
	.loc 4 154 8
	leaq	_ZSt4leftRSt8ios_base(%rip), %rsi
	movq	%rax, %rdi
	call	_ZNSolsEPFRSt8ios_baseS0_E@PLT
	movq	%rax, %rdx
	.loc 4 154 17
	movq	-408(%rbp), %rax
	vmovq	%rax, %xmm0
	movq	%rdx, %rdi
	call	_ZNSolsEd@PLT
	.loc 4 154 48
	movl	$10, %esi
	movq	%rax, %rdi
	call	_ZStlsISt11char_traitsIcEERSt13basic_ostreamIcT_ES5_c@PLT
.LBE49:
	.loc 4 127 9
	incw	-34(%rbp)
	jmp	.L58
.L48:
.LBE48:
	.loc 4 159 15
	movl	$10, %esi
	leaq	_ZSt4cout(%rip), %rdi
	call	_ZStlsISt11char_traitsIcEERSt13basic_ostreamIcT_ES5_c@PLT
	.loc 4 161 9
	movl	$0, %eax
	.loc 4 162 1
	addq	$768, %rsp
	popq	%rbx
	popq	%r10
	.cfi_def_cfa 10, 0
	popq	%rbp
	leaq	-8(%r10), %rsp
	.cfi_def_cfa 7, 8
	ret
	.cfi_endproc
.LFE6772:
	.size	main, .-main
	.section	.text._ZNKSt6chrono10time_pointINS_3_V212system_clockENS_8durationIlSt5ratioILl1ELl1000000000EEEEE16time_since_epochEv,"axG",@progbits,_ZNKSt6chrono10time_pointINS_3_V212system_clockENS_8durationIlSt5ratioILl1ELl1000000000EEEEE16time_since_epochEv,comdat
	.align 2
	.weak	_ZNKSt6chrono10time_pointINS_3_V212system_clockENS_8durationIlSt5ratioILl1ELl1000000000EEEEE16time_since_epochEv
	.type	_ZNKSt6chrono10time_pointINS_3_V212system_clockENS_8durationIlSt5ratioILl1ELl1000000000EEEEE16time_since_epochEv, @function
_ZNKSt6chrono10time_pointINS_3_V212system_clockENS_8durationIlSt5ratioILl1ELl1000000000EEEEE16time_since_epochEv:
.LFB7033:
	.loc 3 838 2
	.cfi_startproc
	pushq	%rbp
	.cfi_def_cfa_offset 16
	.cfi_offset 6, -16
	movq	%rsp, %rbp
	.cfi_def_cfa_register 6
	movq	%rdi, -8(%rbp)
	.loc 3 839 11
	movq	-8(%rbp), %rax
	movq	(%rax), %rax
	.loc 3 839 16
	popq	%rbp
	.cfi_def_cfa 7, 8
	ret
	.cfi_endproc
.LFE7033:
	.size	_ZNKSt6chrono10time_pointINS_3_V212system_clockENS_8durationIlSt5ratioILl1ELl1000000000EEEEE16time_since_epochEv, .-_ZNKSt6chrono10time_pointINS_3_V212system_clockENS_8durationIlSt5ratioILl1ELl1000000000EEEEE16time_since_epochEv
	.section	.text._ZNSt6chronomiINS_3_V212system_clockENS_8durationIlSt5ratioILl1ELl1000000000EEEES6_EENSt11common_typeIJT0_T1_EE4typeERKNS_10time_pointIT_S8_EERKNSC_ISD_S9_EE,"axG",@progbits,_ZNSt6chronomiINS_3_V212system_clockENS_8durationIlSt5ratioILl1ELl1000000000EEEES6_EENSt11common_typeIJT0_T1_EE4typeERKNS_10time_pointIT_S8_EERKNSC_ISD_S9_EE,comdat
	.weak	_ZNSt6chronomiINS_3_V212system_clockENS_8durationIlSt5ratioILl1ELl1000000000EEEES6_EENSt11common_typeIJT0_T1_EE4typeERKNS_10time_pointIT_S8_EERKNSC_ISD_S9_EE
	.type	_ZNSt6chronomiINS_3_V212system_clockENS_8durationIlSt5ratioILl1ELl1000000000EEEES6_EENSt11common_typeIJT0_T1_EE4typeERKNS_10time_pointIT_S8_EERKNSC_ISD_S9_EE, @function
_ZNSt6chronomiINS_3_V212system_clockENS_8durationIlSt5ratioILl1ELl1000000000EEEES6_EENSt11common_typeIJT0_T1_EE4typeERKNS_10time_pointIT_S8_EERKNSC_ISD_S9_EE:
.LFB7064:
	.loc 3 961 7
	.cfi_startproc
	pushq	%rbp
	.cfi_def_cfa_offset 16
	.cfi_offset 6, -16
	movq	%rsp, %rbp
	.cfi_def_cfa_register 6
	subq	$32, %rsp
	movq	%rdi, -24(%rbp)
	movq	%rsi, -32(%rbp)
	.loc 3 963 65
	movq	-32(%rbp), %rax
	movq	%rax, %rdi
	call	_ZNKSt6chrono10time_pointINS_3_V212system_clockENS_8durationIlSt5ratioILl1ELl1000000000EEEEE16time_since_epochEv
	movq	%rax, -16(%rbp)
	.loc 3 963 38
	movq	-24(%rbp), %rax
	movq	%rax, %rdi
	call	_ZNKSt6chrono10time_pointINS_3_V212system_clockENS_8durationIlSt5ratioILl1ELl1000000000EEEEE16time_since_epochEv
	movq	%rax, -8(%rbp)
	.loc 3 963 41
	leaq	-16(%rbp), %rdx
	leaq	-8(%rbp), %rax
	movq	%rdx, %rsi
	movq	%rax, %rdi
	call	_ZNSt6chronomiIlSt5ratioILl1ELl1000000000EElS2_EENSt11common_typeIJNS_8durationIT_T0_EENS4_IT1_T2_EEEE4typeERKS7_RKSA_
	.loc 3 963 69
	leave
	.cfi_def_cfa 7, 8
	ret
	.cfi_endproc
.LFE7064:
	.size	_ZNSt6chronomiINS_3_V212system_clockENS_8durationIlSt5ratioILl1ELl1000000000EEEES6_EENSt11common_typeIJT0_T1_EE4typeERKNS_10time_pointIT_S8_EERKNSC_ISD_S9_EE, .-_ZNSt6chronomiINS_3_V212system_clockENS_8durationIlSt5ratioILl1ELl1000000000EEEES6_EENSt11common_typeIJT0_T1_EE4typeERKNS_10time_pointIT_S8_EERKNSC_ISD_S9_EE
	.section	.text._ZNSt6chrono8durationIdSt5ratioILl1ELl1EEEC2IlS1_ILl1ELl1000000000EEvEERKNS0_IT_T0_EE,"axG",@progbits,_ZNSt6chrono8durationIdSt5ratioILl1ELl1EEEC5IlS1_ILl1ELl1000000000EEvEERKNS0_IT_T0_EE,comdat
	.align 2
	.weak	_ZNSt6chrono8durationIdSt5ratioILl1ELl1EEEC2IlS1_ILl1ELl1000000000EEvEERKNS0_IT_T0_EE
	.type	_ZNSt6chrono8durationIdSt5ratioILl1ELl1EEEC2IlS1_ILl1ELl1000000000EEvEERKNS0_IT_T0_EE, @function
_ZNSt6chrono8durationIdSt5ratioILl1ELl1EEEC2IlS1_ILl1ELl1000000000EEvEERKNS0_IT_T0_EE:
.LFB7066:
	.loc 3 478 14
	.cfi_startproc
	pushq	%rbp
	.cfi_def_cfa_offset 16
	.cfi_offset 6, -16
	movq	%rsp, %rbp
	.cfi_def_cfa_register 6
	subq	$32, %rsp
	movq	%rdi, -24(%rbp)
	movq	%rsi, -32(%rbp)
.LBB57:
	.loc 3 479 33
	movq	-32(%rbp), %rax
	movq	%rax, %rdi
	call	_ZNSt6chrono13duration_castINS_8durationIdSt5ratioILl1ELl1EEEElS2_ILl1ELl1000000000EEEENSt9enable_ifIXsrNS_13__is_durationIT_EE5valueES8_E4typeERKNS1_IT0_T1_EE
	vmovq	%xmm0, %rax
	vmovq	%rax, %xmm0
	vmovsd	%xmm0, -8(%rbp)
	.loc 3 479 44
	leaq	-8(%rbp), %rax
	movq	%rax, %rdi
	call	_ZNKSt6chrono8durationIdSt5ratioILl1ELl1EEE5countEv
	vmovq	%xmm0, %rax
	.loc 3 479 46
	movq	-24(%rbp), %rdx
	movq	%rax, (%rdx)
.LBE57:
	.loc 3 479 50
	nop
	leave
	.cfi_def_cfa 7, 8
	ret
	.cfi_endproc
.LFE7066:
	.size	_ZNSt6chrono8durationIdSt5ratioILl1ELl1EEEC2IlS1_ILl1ELl1000000000EEvEERKNS0_IT_T0_EE, .-_ZNSt6chrono8durationIdSt5ratioILl1ELl1EEEC2IlS1_ILl1ELl1000000000EEvEERKNS0_IT_T0_EE
	.weak	_ZNSt6chrono8durationIdSt5ratioILl1ELl1EEEC1IlS1_ILl1ELl1000000000EEvEERKNS0_IT_T0_EE
	.set	_ZNSt6chrono8durationIdSt5ratioILl1ELl1EEEC1IlS1_ILl1ELl1000000000EEvEERKNS0_IT_T0_EE,_ZNSt6chrono8durationIdSt5ratioILl1ELl1EEEC2IlS1_ILl1ELl1000000000EEvEERKNS0_IT_T0_EE
	.section	.text._ZNSt6chronomiIlSt5ratioILl1ELl1000000000EElS2_EENSt11common_typeIJNS_8durationIT_T0_EENS4_IT1_T2_EEEE4typeERKS7_RKSA_,"axG",@progbits,_ZNSt6chronomiIlSt5ratioILl1ELl1000000000EElS2_EENSt11common_typeIJNS_8durationIT_T0_EENS4_IT1_T2_EEEE4typeERKS7_RKSA_,comdat
	.weak	_ZNSt6chronomiIlSt5ratioILl1ELl1000000000EElS2_EENSt11common_typeIJNS_8durationIT_T0_EENS4_IT1_T2_EEEE4typeERKS7_RKSA_
	.type	_ZNSt6chronomiIlSt5ratioILl1ELl1000000000EElS2_EENSt11common_typeIJNS_8durationIT_T0_EENS4_IT1_T2_EEEE4typeERKS7_RKSA_, @function
_ZNSt6chronomiIlSt5ratioILl1ELl1000000000EElS2_EENSt11common_typeIJNS_8durationIT_T0_EENS4_IT1_T2_EEEE4typeERKS7_RKSA_:
.LFB7188:
	.loc 3 608 7
	.cfi_startproc
	pushq	%rbp
	.cfi_def_cfa_offset 16
	.cfi_offset 6, -16
	movq	%rsp, %rbp
	.cfi_def_cfa_register 6
	pushq	%rbx
	subq	$56, %rsp
	.cfi_offset 3, -24
	movq	%rdi, -56(%rbp)
	movq	%rsi, -64(%rbp)
	.loc 3 614 14
	movq	-56(%rbp), %rax
	movq	(%rax), %rax
	movq	%rax, -32(%rbp)
	.loc 3 614 31
	leaq	-32(%rbp), %rax
	movq	%rax, %rdi
	call	_ZNKSt6chrono8durationIlSt5ratioILl1ELl1000000000EEE5countEv
	movq	%rax, %rbx
	.loc 3 614 36
	movq	-64(%rbp), %rax
	movq	(%rax), %rax
	movq	%rax, -24(%rbp)
	.loc 3 614 53
	leaq	-24(%rbp), %rax
	movq	%rax, %rdi
	call	_ZNKSt6chrono8durationIlSt5ratioILl1ELl1000000000EEE5countEv
	movq	%rax, %rdx
	.loc 3 614 34
	movq	%rbx, %rax
	subq	%rdx, %rax
	movq	%rax, -40(%rbp)
	.loc 3 614 9
	leaq	-40(%rbp), %rdx
	leaq	-48(%rbp), %rax
	movq	%rdx, %rsi
	movq	%rax, %rdi
	call	_ZNSt6chrono8durationIlSt5ratioILl1ELl1000000000EEEC1IlvEERKT_
	.loc 3 614 55
	movq	-48(%rbp), %rax
	.loc 3 615 7
	movq	-8(%rbp), %rbx
	leave
	.cfi_def_cfa 7, 8
	ret
	.cfi_endproc
.LFE7188:
	.size	_ZNSt6chronomiIlSt5ratioILl1ELl1000000000EElS2_EENSt11common_typeIJNS_8durationIT_T0_EENS4_IT1_T2_EEEE4typeERKS7_RKSA_, .-_ZNSt6chronomiIlSt5ratioILl1ELl1000000000EElS2_EENSt11common_typeIJNS_8durationIT_T0_EENS4_IT1_T2_EEEE4typeERKS7_RKSA_
	.section	.text._ZNSt6chrono13duration_castINS_8durationIdSt5ratioILl1ELl1EEEElS2_ILl1ELl1000000000EEEENSt9enable_ifIXsrNS_13__is_durationIT_EE5valueES8_E4typeERKNS1_IT0_T1_EE,"axG",@progbits,_ZNSt6chrono13duration_castINS_8durationIdSt5ratioILl1ELl1EEEElS2_ILl1ELl1000000000EEEENSt9enable_ifIXsrNS_13__is_durationIT_EE5valueES8_E4typeERKNS1_IT0_T1_EE,comdat
	.weak	_ZNSt6chrono13duration_castINS_8durationIdSt5ratioILl1ELl1EEEElS2_ILl1ELl1000000000EEEENSt9enable_ifIXsrNS_13__is_durationIT_EE5valueES8_E4typeERKNS1_IT0_T1_EE
	.type	_ZNSt6chrono13duration_castINS_8durationIdSt5ratioILl1ELl1EEEElS2_ILl1ELl1000000000EEEENSt9enable_ifIXsrNS_13__is_durationIT_EE5valueES8_E4typeERKNS1_IT0_T1_EE, @function
_ZNSt6chrono13duration_castINS_8durationIdSt5ratioILl1ELl1EEEElS2_ILl1ELl1000000000EEEENSt9enable_ifIXsrNS_13__is_durationIT_EE5valueES8_E4typeERKNS1_IT0_T1_EE:
.LFB7189:
	.loc 3 254 7
	.cfi_startproc
	pushq	%rbp
	.cfi_def_cfa_offset 16
	.cfi_offset 6, -16
	movq	%rsp, %rbp
	.cfi_def_cfa_register 6
	subq	$16, %rsp
	movq	%rdi, -8(%rbp)
	.loc 3 263 21
	movq	-8(%rbp), %rax
	movq	%rax, %rdi
	call	_ZNSt6chrono20__duration_cast_implINS_8durationIdSt5ratioILl1ELl1EEEES2_ILl1ELl1000000000EEdLb1ELb0EE6__castIlS5_EES4_RKNS1_IT_T0_EE
	vmovq	%xmm0, %rax
	.loc 3 264 7
	vmovq	%rax, %xmm0
	leave
	.cfi_def_cfa 7, 8
	ret
	.cfi_endproc
.LFE7189:
	.size	_ZNSt6chrono13duration_castINS_8durationIdSt5ratioILl1ELl1EEEElS2_ILl1ELl1000000000EEEENSt9enable_ifIXsrNS_13__is_durationIT_EE5valueES8_E4typeERKNS1_IT0_T1_EE, .-_ZNSt6chrono13duration_castINS_8durationIdSt5ratioILl1ELl1EEEElS2_ILl1ELl1000000000EEEENSt9enable_ifIXsrNS_13__is_durationIT_EE5valueES8_E4typeERKNS1_IT0_T1_EE
	.section	.text._ZNSt6chrono20__duration_cast_implINS_8durationIdSt5ratioILl1ELl1EEEES2_ILl1ELl1000000000EEdLb1ELb0EE6__castIlS5_EES4_RKNS1_IT_T0_EE,"axG",@progbits,_ZNSt6chrono20__duration_cast_implINS_8durationIdSt5ratioILl1ELl1EEEES2_ILl1ELl1000000000EEdLb1ELb0EE6__castIlS5_EES4_RKNS1_IT_T0_EE,comdat
	.weak	_ZNSt6chrono20__duration_cast_implINS_8durationIdSt5ratioILl1ELl1EEEES2_ILl1ELl1000000000EEdLb1ELb0EE6__castIlS5_EES4_RKNS1_IT_T0_EE
	.type	_ZNSt6chrono20__duration_cast_implINS_8durationIdSt5ratioILl1ELl1EEEES2_ILl1ELl1000000000EEdLb1ELb0EE6__castIlS5_EES4_RKNS1_IT_T0_EE, @function
_ZNSt6chrono20__duration_cast_implINS_8durationIdSt5ratioILl1ELl1EEEES2_ILl1ELl1000000000EEdLb1ELb0EE6__castIlS5_EES4_RKNS1_IT_T0_EE:
.LFB7226:
	.loc 3 210 4
	.cfi_startproc
	pushq	%rbp
	.cfi_def_cfa_offset 16
	.cfi_offset 6, -16
	movq	%rsp, %rbp
	.cfi_def_cfa_register 6
	subq	$32, %rsp
	movq	%rdi, -24(%rbp)
	.loc 3 214 34
	movq	-24(%rbp), %rax
	movq	%rax, %rdi
	call	_ZNKSt6chrono8durationIlSt5ratioILl1ELl1000000000EEE5countEv
	.loc 3 214 8
	vcvtsi2sdq	%rax, %xmm0, %xmm0
	.loc 3 214 38
	vmovsd	.LC13(%rip), %xmm1
	vdivsd	%xmm1, %xmm0, %xmm0
	.loc 3 213 20
	vmovsd	%xmm0, -8(%rbp)
	.loc 3 213 13
	leaq	-8(%rbp), %rdx
	leaq	-16(%rbp), %rax
	movq	%rdx, %rsi
	movq	%rax, %rdi
	call	_ZNSt6chrono8durationIdSt5ratioILl1ELl1EEEC1IdvEERKT_
	.loc 3 214 67
	vmovsd	-16(%rbp), %xmm0
	vmovq	%xmm0, %rax
	.loc 3 215 4
	vmovq	%rax, %xmm0
	leave
	.cfi_def_cfa 7, 8
	ret
	.cfi_endproc
.LFE7226:
	.size	_ZNSt6chrono20__duration_cast_implINS_8durationIdSt5ratioILl1ELl1EEEES2_ILl1ELl1000000000EEdLb1ELb0EE6__castIlS5_EES4_RKNS1_IT_T0_EE, .-_ZNSt6chrono20__duration_cast_implINS_8durationIdSt5ratioILl1ELl1EEEES2_ILl1ELl1000000000EEdLb1ELb0EE6__castIlS5_EES4_RKNS1_IT_T0_EE
	.section	.text._ZNSt6chrono8durationIdSt5ratioILl1ELl1EEEC2IdvEERKT_,"axG",@progbits,_ZNSt6chrono8durationIdSt5ratioILl1ELl1EEEC5IdvEERKT_,comdat
	.align 2
	.weak	_ZNSt6chrono8durationIdSt5ratioILl1ELl1EEEC2IdvEERKT_
	.type	_ZNSt6chrono8durationIdSt5ratioILl1ELl1EEEC2IdvEERKT_, @function
_ZNSt6chrono8durationIdSt5ratioILl1ELl1EEEC2IdvEERKT_:
.LFB7262:
	.loc 3 470 23
	.cfi_startproc
	pushq	%rbp
	.cfi_def_cfa_offset 16
	.cfi_offset 6, -16
	movq	%rsp, %rbp
	.cfi_def_cfa_register 6
	movq	%rdi, -8(%rbp)
	movq	%rsi, -16(%rbp)
.LBB58:
	.loc 3 471 10
	movq	-16(%rbp), %rax
	vmovsd	(%rax), %xmm0
	.loc 3 471 33
	movq	-8(%rbp), %rax
	vmovsd	%xmm0, (%rax)
.LBE58:
	.loc 3 471 37
	nop
	popq	%rbp
	.cfi_def_cfa 7, 8
	ret
	.cfi_endproc
.LFE7262:
	.size	_ZNSt6chrono8durationIdSt5ratioILl1ELl1EEEC2IdvEERKT_, .-_ZNSt6chrono8durationIdSt5ratioILl1ELl1EEEC2IdvEERKT_
	.weak	_ZNSt6chrono8durationIdSt5ratioILl1ELl1EEEC1IdvEERKT_
	.set	_ZNSt6chrono8durationIdSt5ratioILl1ELl1EEEC1IdvEERKT_,_ZNSt6chrono8durationIdSt5ratioILl1ELl1EEEC2IdvEERKT_
	.text
	.type	_Z41__static_initialization_and_destruction_0ii, @function
_Z41__static_initialization_and_destruction_0ii:
.LFB7335:
	.loc 4 162 2
	.cfi_startproc
	pushq	%rbp
	.cfi_def_cfa_offset 16
	.cfi_offset 6, -16
	movq	%rsp, %rbp
	.cfi_def_cfa_register 6
	subq	$16, %rsp
	movl	%edi, -4(%rbp)
	movl	%esi, -8(%rbp)
	.loc 4 162 2
	cmpl	$1, -4(%rbp)
	jne	.L74
	.loc 4 162 2 is_stmt 0 discriminator 1
	cmpl	$65535, -8(%rbp)
	jne	.L74
	.file 7 "/usr/include/c++/10/iostream"
	.loc 7 74 25 is_stmt 1
	leaq	_ZStL8__ioinit(%rip), %rdi
	call	_ZNSt8ios_base4InitC1Ev@PLT
	leaq	__dso_handle(%rip), %rdx
	leaq	_ZStL8__ioinit(%rip), %rsi
	movq	_ZNSt8ios_base4InitD1Ev@GOTPCREL(%rip), %rax
	movq	%rax, %rdi
	call	__cxa_atexit@PLT
.L74:
	.loc 4 162 2
	nop
	leave
	.cfi_def_cfa 7, 8
	ret
	.cfi_endproc
.LFE7335:
	.size	_Z41__static_initialization_and_destruction_0ii, .-_Z41__static_initialization_and_destruction_0ii
	.type	_GLOBAL__sub_I__Z10print_headv, @function
_GLOBAL__sub_I__Z10print_headv:
.LFB7336:
	.loc 4 162 2
	.cfi_startproc
	pushq	%rbp
	.cfi_def_cfa_offset 16
	.cfi_offset 6, -16
	movq	%rsp, %rbp
	.cfi_def_cfa_register 6
	.loc 4 162 2
	movl	$65535, %esi
	movl	$1, %edi
	call	_Z41__static_initialization_and_destruction_0ii
	popq	%rbp
	.cfi_def_cfa 7, 8
	ret
	.cfi_endproc
.LFE7336:
	.size	_GLOBAL__sub_I__Z10print_headv, .-_GLOBAL__sub_I__Z10print_headv
	.section	.init_array,"aw"
	.align 8
	.quad	_GLOBAL__sub_I__Z10print_headv
	.section	.rodata
	.align 8
.LC6:
	.long	1030792151
	.long	1079908106
	.align 8
.LC7:
	.long	-1717986918
	.long	1075812761
	.align 8
.LC8:
	.long	0
	.long	1076101120
	.align 8
.LC11:
	.long	-343597384
	.long	1079908433
	.align 8
.LC13:
	.long	0
	.long	1104006501
	.text
.Letext0:
	.file 8 "/usr/include/c++/10/cwchar"
	.file 9 "/usr/include/c++/10/bits/exception_ptr.h"
	.file 10 "/usr/include/x86_64-linux-gnu/c++/10/bits/c++config.h"
	.file 11 "/usr/include/c++/10/type_traits"
	.file 12 "/usr/include/c++/10/bits/cpp_type_traits.h"
	.file 13 "/usr/include/c++/10/bits/stl_pair.h"
	.file 14 "/usr/include/c++/10/debug/debug.h"
	.file 15 "/usr/include/c++/10/bits/char_traits.h"
	.file 16 "/usr/include/c++/10/cstdint"
	.file 17 "/usr/include/c++/10/clocale"
	.file 18 "/usr/include/c++/10/cstdlib"
	.file 19 "/usr/include/c++/10/cstdio"
	.file 20 "/usr/include/c++/10/bits/basic_string.h"
	.file 21 "/usr/include/c++/10/system_error"
	.file 22 "/usr/include/c++/10/cwctype"
	.file 23 "/usr/include/c++/10/iosfwd"
	.file 24 "/usr/include/c++/10/ctime"
	.file 25 "/usr/include/c++/10/bits/uses_allocator.h"
	.file 26 "/usr/include/c++/10/tuple"
	.file 27 "/usr/include/c++/10/bits/std_abs.h"
	.file 28 "/usr/include/c++/10/ratio"
	.file 29 "/usr/include/c++/10/cmath"
	.file 30 "/usr/include/c++/10/bits/predefined_ops.h"
	.file 31 "/usr/lib/gcc/x86_64-linux-gnu/10/include/stddef.h"
	.file 32 "<built-in>"
	.file 33 "/usr/include/x86_64-linux-gnu/bits/types/wint_t.h"
	.file 34 "/usr/include/x86_64-linux-gnu/bits/types/__mbstate_t.h"
	.file 35 "/usr/include/x86_64-linux-gnu/bits/types/mbstate_t.h"
	.file 36 "/usr/include/x86_64-linux-gnu/bits/types/__FILE.h"
	.file 37 "/usr/include/x86_64-linux-gnu/bits/types/struct_FILE.h"
	.file 38 "/usr/include/x86_64-linux-gnu/bits/types/FILE.h"
	.file 39 "/usr/include/wchar.h"
	.file 40 "/usr/include/x86_64-linux-gnu/bits/types/struct_tm.h"
	.file 41 "/usr/include/x86_64-linux-gnu/bits/types.h"
	.file 42 "/usr/include/x86_64-linux-gnu/bits/stdint-intn.h"
	.file 43 "/usr/include/x86_64-linux-gnu/bits/stdint-uintn.h"
	.file 44 "/usr/include/stdint.h"
	.file 45 "/usr/include/locale.h"
	.file 46 "/usr/include/x86_64-linux-gnu/bits/types/time_t.h"
	.file 47 "/usr/include/x86_64-linux-gnu/bits/types/clock_t.h"
	.file 48 "/usr/include/x86_64-linux-gnu/c++/10/bits/atomic_word.h"
	.file 49 "/usr/include/stdlib.h"
	.file 50 "/usr/include/x86_64-linux-gnu/bits/types/__fpos_t.h"
	.file 51 "/usr/include/stdio.h"
	.file 52 "/usr/include/x86_64-linux-gnu/bits/wctype-wchar.h"
	.file 53 "/usr/include/wctype.h"
	.file 54 "/usr/include/time.h"
	.file 55 "/usr/include/c++/10/stdlib.h"
	.file 56 "/usr/include/math.h"
	.section	.note.GNU-stack,"",@progbits
